target datalayout = "e-m:e-p270:32:32-p271:32:32-p272:64:64-i64:64-i128:128-f80:128-n8:16:32:64-S128"
target triple = "x86_64-unknown-linux-gnu"

%"class.sat::literal" = type { i32 }
%"class.sat::clause" = type { i32, i32, i32, %class.approx_set_tpl, i32, [0 x %"class.sat::literal"] }
%class.approx_set_tpl = type { i32 }

; Function Attrs: mustprogress nounwind uwtable
define linkonce_odr hidden noundef i32 @_ZNK3u2uclEj(ptr noundef nonnull align 1 dereferenceable(1) %this, i32 noundef %u) #4 comdat align 2 {
entry:
  %this.addr = alloca ptr, align 8
  %u.addr = alloca i32, align 4
  store ptr %this, ptr %this.addr, align 8
  store i32 %u, ptr %u.addr, align 4
  %0 = load i32, ptr %u.addr, align 4
  ret i32 %0
}

; Function Attrs: mustprogress nounwind uwtable
define linkonce_odr hidden noundef i32 @_ZNK14approx_set_tplIj3u2ujE3u2sEj(ptr noundef nonnull align 4 dereferenceable(4) %this, i32 noundef %u) #4 comdat align 2 {
entry:
  %this.addr = alloca ptr, align 8
  %u.addr = alloca i32, align 4
  store ptr %this, ptr %this.addr, align 8
  store i32 %u, ptr %u.addr, align 4
  %0 = load i32, ptr %u.addr, align 4
  %and = and i32 %0, 31
  %shl = shl i32 1, %and
  ret i32 %shl
}

; Function Attrs: mustprogress uwtable
define linkonce_odr hidden noundef i32 @_ZNK14approx_set_tplIj3u2ujE3e2uERKj(ptr noundef nonnull align 4 dereferenceable(4) %this, ptr noundef nonnull align 4 dereferenceable(4) %e) #5 comdat align 2 {
entry:
  %this.addr = alloca ptr, align 8
  %e.addr = alloca ptr, align 8
  store ptr %this, ptr %this.addr, align 8
  store ptr %e, ptr %e.addr, align 8
  %this1 = load ptr, ptr %this.addr, align 8
  %0 = load ptr, ptr %e.addr, align 8
  %1 = load i32, ptr %0, align 4
  %call = call noundef i32 @_ZNK3u2uclEj(ptr noundef nonnull align 1 dereferenceable(1) %this1, i32 noundef %1)
  ret i32 %call
}

; Function Attrs: mustprogress uwtable
define linkonce_odr hidden noundef i32 @_ZNK14approx_set_tplIj3u2ujE3e2sERKj(ptr noundef nonnull align 4 dereferenceable(4) %this, ptr noundef nonnull align 4 dereferenceable(4) %e) #5 comdat align 2 {
entry:
  %this.addr = alloca ptr, align 8
  %e.addr = alloca ptr, align 8
  store ptr %this, ptr %this.addr, align 8
  store ptr %e, ptr %e.addr, align 8
  %this1 = load ptr, ptr %this.addr, align 8
  %0 = load ptr, ptr %e.addr, align 8
  %call = call noundef i32 @_ZNK14approx_set_tplIj3u2ujE3e2uERKj(ptr noundef nonnull align 4 dereferenceable(4) %this1, ptr noundef nonnull align 4 dereferenceable(4) %0)
  %call2 = call noundef i32 @_ZNK14approx_set_tplIj3u2ujE3u2sEj(ptr noundef nonnull align 4 dereferenceable(4) %this1, i32 noundef %call)
  ret i32 %call2
}

; Function Attrs: mustprogress uwtable
define linkonce_odr hidden void @_ZN14approx_set_tplIj3u2ujE6insertERKj(ptr noundef nonnull align 4 dereferenceable(4) %this, ptr noundef nonnull align 4 dereferenceable(4) %e) #5 comdat align 2 {
entry:
  %this.addr = alloca ptr, align 8
  %e.addr = alloca ptr, align 8
  store ptr %this, ptr %this.addr, align 8
  store ptr %e, ptr %e.addr, align 8
  %this1 = load ptr, ptr %this.addr, align 8
  %0 = load ptr, ptr %e.addr, align 8
  %call = call noundef i32 @_ZNK14approx_set_tplIj3u2ujE3e2sERKj(ptr noundef nonnull align 4 dereferenceable(4) %this1, ptr noundef nonnull align 4 dereferenceable(4) %0)
  %m_set = getelementptr inbounds %class.approx_set_tpl, ptr %this1, i32 0, i32 0
  %1 = load i32, ptr %m_set, align 4
  %or = or i32 %1, %call
  store i32 %or, ptr %m_set, align 4
  ret void
}

; Function Attrs: mustprogress nounwind uwtable
define linkonce_odr hidden noundef i32 @_ZNK3sat7literal3varEv(ptr noundef nonnull align 4 dereferenceable(4) %this) #4 comdat align 2 {
entry:
  %this.addr = alloca ptr, align 8
  store ptr %this, ptr %this.addr, align 8
  %this1 = load ptr, ptr %this.addr, align 8
  %m_val = getelementptr inbounds %"class.sat::literal", ptr %this1, i32 0, i32 0
  %0 = load i32, ptr %m_val, align 4
  %shr = lshr i32 %0, 1
  ret i32 %shr
}

; Function Attrs: mustprogress uwtable
define hidden i32 @_ZN3sat6clause6approxEjPKNS_7literalE(i32 noundef %num, ptr noundef %lits) #5 align 2 {
entry:
  %retval = alloca %class.approx_set_tpl, align 4
  %num.addr = alloca i32, align 4
  %lits.addr = alloca ptr, align 8
  %i = alloca i32, align 4
  %ref.tmp = alloca i32, align 4
  store i32 %num, ptr %num.addr, align 4
  store ptr %lits, ptr %lits.addr, align 8
  call void @_ZN14approx_set_tplIj3u2ujEC2Ev(ptr noundef nonnull align 4 dereferenceable(4) %retval) #3
  store i32 0, ptr %i, align 4
  br label %for.cond

for.cond:                                         ; preds = %for.inc, %entry
  %0 = load i32, ptr %i, align 4
  %1 = load i32, ptr %num.addr, align 4
  %cmp = icmp ult i32 %0, %1
  br i1 %cmp, label %for.body, label %for.end

for.body:                                         ; preds = %for.cond
  %2 = load ptr, ptr %lits.addr, align 8
  %3 = load i32, ptr %i, align 4
  %idxprom = zext i32 %3 to i64
  %arrayidx = getelementptr inbounds %"class.sat::literal", ptr %2, i64 %idxprom
  %call = call noundef i32 @_ZNK3sat7literal3varEv(ptr noundef nonnull align 4 dereferenceable(4) %arrayidx)
  store i32 %call, ptr %ref.tmp, align 4
  call void @_ZN14approx_set_tplIj3u2ujE6insertERKj(ptr noundef nonnull align 4 dereferenceable(4) %retval, ptr noundef nonnull align 4 dereferenceable(4) %ref.tmp)
  br label %for.inc

for.inc:                                          ; preds = %for.body
  %4 = load i32, ptr %i, align 4
  %inc = add i32 %4, 1
  store i32 %inc, ptr %i, align 4
  br label %for.cond, !llvm.loop !4

for.end:                                          ; preds = %for.cond
  %coerce.dive = getelementptr inbounds %class.approx_set_tpl, ptr %retval, i32 0, i32 0
  %5 = load i32, ptr %coerce.dive, align 4
  ret i32 %5
}

; Function Attrs: mustprogress uwtable
define hidden void @_ZN3sat6clause13update_approxEv(ptr noundef nonnull align 4 dereferenceable(20) %this) #5 align 2 {
entry:
  %this.addr = alloca ptr, align 8
  %ref.tmp = alloca %class.approx_set_tpl, align 4
  store ptr %this, ptr %this.addr, align 8
  %this1 = load ptr, ptr %this.addr, align 8
  %m_size = getelementptr inbounds %"class.sat::clause", ptr %this1, i32 0, i32 1
  %0 = load i32, ptr %m_size, align 4
  %m_lits = getelementptr inbounds %"class.sat::clause", ptr %this1, i32 0, i32 5
  %arraydecay = getelementptr inbounds [0 x %"class.sat::literal"], ptr %m_lits, i64 0, i64 0
  %call = call i32 @_ZN3sat6clause6approxEjPKNS_7literalE(i32 noundef %0, ptr noundef %arraydecay)
  %coerce.dive = getelementptr inbounds %class.approx_set_tpl, ptr %ref.tmp, i32 0, i32 0
  store i32 %call, ptr %coerce.dive, align 4
  %m_approx = getelementptr inbounds %"class.sat::clause", ptr %this1, i32 0, i32 3
  call void @llvm.memcpy.p0.p0.i64(ptr align 4 %m_approx, ptr align 4 %ref.tmp, i64 4, i1 false)
  ret void
}

; Function Attrs: mustprogress uwtable
define linkonce_odr hidden void @_ZN3sat6clause17mark_strengthenedEv(ptr noundef nonnull align 4 dereferenceable(20) %this) #5 comdat align 2 {
entry:
  %this.addr = alloca ptr, align 8
  store ptr %this, ptr %this.addr, align 8
  %this1 = load ptr, ptr %this.addr, align 8
  %m_strengthened = getelementptr inbounds %"class.sat::clause", ptr %this1, i32 0, i32 4
  %bf.load = load i32, ptr %m_strengthened, align 4
  %bf.clear = and i32 %bf.load, -2
  %bf.set = or i32 %bf.clear, 1
  store i32 %bf.set, ptr %m_strengthened, align 4
  call void @_ZN3sat6clause13update_approxEv(ptr noundef nonnull align 4 dereferenceable(20) %this1)
  ret void
}

; Function Attrs: mustprogress nounwind uwtable
define linkonce_odr hidden void @_ZN14approx_set_tplIj3u2ujEC2Ev(ptr noundef nonnull align 4 dereferenceable(4) %this) unnamed_addr #4 comdat align 2 {
entry:
  %this.addr = alloca ptr, align 8
  store ptr %this, ptr %this.addr, align 8
  %this1 = load ptr, ptr %this.addr, align 8
  %m_set = getelementptr inbounds %class.approx_set_tpl, ptr %this1, i32 0, i32 0
  store i32 0, ptr %m_set, align 4
  ret void
}

; Function Attrs: mustprogress uwtable
define hidden void @_ZN3sat6clauseC2EjjPKNS_7literalEb(ptr noundef nonnull align 4 dereferenceable(20) %this, i32 noundef %id, i32 noundef %sz, ptr noundef %lits, i1 noundef zeroext %learned) unnamed_addr #5 align 2 {
entry:
  %this.addr = alloca ptr, align 8
  %id.addr = alloca i32, align 4
  %sz.addr = alloca i32, align 4
  %lits.addr = alloca ptr, align 8
  %learned.addr = alloca i8, align 1
  store ptr %this, ptr %this.addr, align 8
  store i32 %id, ptr %id.addr, align 4
  store i32 %sz, ptr %sz.addr, align 4
  store ptr %lits, ptr %lits.addr, align 8
  %frombool = zext i1 %learned to i8
  store i8 %frombool, ptr %learned.addr, align 1
  %this1 = load ptr, ptr %this.addr, align 8
  %m_id = getelementptr inbounds %"class.sat::clause", ptr %this1, i32 0, i32 0
  %0 = load i32, ptr %id.addr, align 4
  store i32 %0, ptr %m_id, align 4
  %m_size = getelementptr inbounds %"class.sat::clause", ptr %this1, i32 0, i32 1
  %1 = load i32, ptr %sz.addr, align 4
  store i32 %1, ptr %m_size, align 4
  %m_capacity = getelementptr inbounds %"class.sat::clause", ptr %this1, i32 0, i32 2
  %2 = load i32, ptr %sz.addr, align 4
  store i32 %2, ptr %m_capacity, align 4
  %m_approx = getelementptr inbounds %"class.sat::clause", ptr %this1, i32 0, i32 3
  call void @_ZN14approx_set_tplIj3u2ujEC2Ev(ptr noundef nonnull align 4 dereferenceable(4) %m_approx) #3
  %m_removed = getelementptr inbounds %"class.sat::clause", ptr %this1, i32 0, i32 4
  %bf.load = load i32, ptr %m_removed, align 4
  %bf.clear = and i32 %bf.load, -3
  %bf.set = or i32 %bf.clear, 0
  store i32 %bf.set, ptr %m_removed, align 4
  %m_learned = getelementptr inbounds %"class.sat::clause", ptr %this1, i32 0, i32 4
  %3 = load i8, ptr %learned.addr, align 1
  %tobool = trunc i8 %3 to i1
  %conv = zext i1 %tobool to i32
  %bf.load2 = load i32, ptr %m_learned, align 4
  %bf.value = and i32 %conv, 1
  %bf.shl = shl i32 %bf.value, 2
  %bf.clear3 = and i32 %bf.load2, -5
  %bf.set4 = or i32 %bf.clear3, %bf.shl
  store i32 %bf.set4, ptr %m_learned, align 4
  %m_used = getelementptr inbounds %"class.sat::clause", ptr %this1, i32 0, i32 4
  %bf.load5 = load i32, ptr %m_used, align 4
  %bf.clear6 = and i32 %bf.load5, -9
  %bf.set7 = or i32 %bf.clear6, 0
  store i32 %bf.set7, ptr %m_used, align 4
  %m_frozen = getelementptr inbounds %"class.sat::clause", ptr %this1, i32 0, i32 4
  %bf.load8 = load i32, ptr %m_frozen, align 4
  %bf.clear9 = and i32 %bf.load8, -17
  %bf.set10 = or i32 %bf.clear9, 0
  store i32 %bf.set10, ptr %m_frozen, align 4
  %m_reinit_stack = getelementptr inbounds %"class.sat::clause", ptr %this1, i32 0, i32 4
  %bf.load11 = load i32, ptr %m_reinit_stack, align 4
  %bf.clear12 = and i32 %bf.load11, -33
  %bf.set13 = or i32 %bf.clear12, 0
  store i32 %bf.set13, ptr %m_reinit_stack, align 4
  %m_inact_rounds = getelementptr inbounds %"class.sat::clause", ptr %this1, i32 0, i32 4
  %bf.load14 = load i32, ptr %m_inact_rounds, align 4
  %bf.clear15 = and i32 %bf.load14, -16321
  %bf.set16 = or i32 %bf.clear15, 0
  store i32 %bf.set16, ptr %m_inact_rounds, align 4
  %m_glue = getelementptr inbounds %"class.sat::clause", ptr %this1, i32 0, i32 4
  %bf.load17 = load i32, ptr %m_glue, align 4
  %bf.clear18 = and i32 %bf.load17, -4177921
  %bf.set19 = or i32 %bf.clear18, 4177920
  store i32 %bf.set19, ptr %m_glue, align 4
  %m_psm = getelementptr inbounds %"class.sat::clause", ptr %this1, i32 0, i32 4
  %bf.load20 = load i32, ptr %m_psm, align 4
  %bf.clear21 = and i32 %bf.load20, -1069547521
  %bf.set22 = or i32 %bf.clear21, 1069547520
  store i32 %bf.set22, ptr %m_psm, align 4
  %m_lits = getelementptr inbounds %"class.sat::clause", ptr %this1, i32 0, i32 5
  %arraydecay = getelementptr inbounds [0 x %"class.sat::literal"], ptr %m_lits, i64 0, i64 0
  %4 = load ptr, ptr %lits.addr, align 8
  %5 = load i32, ptr %sz.addr, align 4
  %conv23 = zext i32 %5 to i64
  %mul = mul i64 4, %conv23
  call void @llvm.memcpy.p0.p0.i64(ptr align 4 %arraydecay, ptr align 4 %4, i64 %mul, i1 false)
  call void @_ZN3sat6clause17mark_strengthenedEv(ptr noundef nonnull align 4 dereferenceable(20) %this1)
  ret void
}