; Function Attrs: mustprogress nofree norecurse nosync nounwind memory(argmem: readwrite) uwtable
define hidden void @_ZN3sat6clauseC2EjjPKNS_7literalEb(ptr nocapture noundef nonnull align 4 dereferenceable(20) %this, i32 noundef %id, i32 noundef %sz, ptr nocapture noundef readonly %lits, i1 noundef zeroext %learned) unnamed_addr #3 align 2 {
entry:
  store i32 %id, ptr %this, align 4
  %m_size = getelementptr inbounds i8, ptr %this, i64 4
  store i32 %sz, ptr %m_size, align 4
  %m_capacity = getelementptr inbounds i8, ptr %this, i64 8
  store i32 %sz, ptr %m_capacity, align 4
  %m_approx = getelementptr inbounds i8, ptr %this, i64 12
  store i32 0, ptr %m_approx, align 4
  %m_removed = getelementptr inbounds i8, ptr %this, i64 16
  %bf.load = load i32, ptr %m_removed, align 4
  %bf.shl = select i1 %learned, i32 4, i32 0
  %bf.clear3 = and i32 %bf.load, -1073741823
  %bf.set4 = or disjoint i32 %bf.clear3, %bf.shl
  %bf.set22 = or disjoint i32 %bf.set4, 1073725440
  store i32 %bf.set22, ptr %m_removed, align 4
  %m_lits = getelementptr inbounds i8, ptr %this, i64 20
  %conv23 = zext i32 %sz to i64
  %mul = shl nuw nsw i64 %conv23, 2
  tail call void @llvm.memcpy.p0.p0.i64(ptr nonnull align 4 %m_lits, ptr align 4 %lits, i64 %mul, i1 false)
  %bf.set.i = or i32 %bf.set4, 1073725441
  store i32 %bf.set.i, ptr %m_removed, align 4
  %cmp4.not.i.i.i = icmp eq i32 %sz, 0
  br i1 %cmp4.not.i.i.i, label %_ZN3sat6clause17mark_strengthenedEv.exit, label %for.body.i.i.i

for.body.i.i.i:                                   ; preds = %entry, %for.body.i.i.i
  %indvars.iv.i.i.i = phi i64 [ %indvars.iv.next.i.i.i, %for.body.i.i.i ], [ 0, %entry ]
  %retval.sroa.0.05.i.i.i = phi i32 [ %or.i.i.i.i, %for.body.i.i.i ], [ 0, %entry ]
  %arrayidx.i.i.i = getelementptr inbounds %"class.sat::literal", ptr %m_lits, i64 %indvars.iv.i.i.i
  %0 = load i32, ptr %arrayidx.i.i.i, align 4
  %shr.i.i.i.i = lshr i32 %0, 1
  %and.i.i.i.i.i.i = and i32 %shr.i.i.i.i, 31
  %shl.i.i.i.i.i.i = shl nuw i32 1, %and.i.i.i.i.i.i
  %or.i.i.i.i = or i32 %shl.i.i.i.i.i.i, %retval.sroa.0.05.i.i.i
  %indvars.iv.next.i.i.i = add nuw nsw i64 %indvars.iv.i.i.i, 1
  %exitcond.not.i.i.i = icmp eq i64 %indvars.iv.next.i.i.i, %conv23
  br i1 %exitcond.not.i.i.i, label %_ZN3sat6clause17mark_strengthenedEv.exit, label %for.body.i.i.i, !llvm.loop !4

_ZN3sat6clause17mark_strengthenedEv.exit:         ; preds = %for.body.i.i.i, %entry
  %retval.sroa.0.0.lcssa.i.i.i = phi i32 [ 0, %entry ], [ %or.i.i.i.i, %for.body.i.i.i ]
  store i32 %retval.sroa.0.0.lcssa.i.i.i, ptr %m_approx, align 4
  ret void
}